target datalayout = "e-m:e-p270:32:32-p271:32:32-p272:64:64-i64:64-i128:128-f80:128-n8:16:32:64-S128"
target triple = "x86_64-pc-linux-gnu"

@.str.52 = private unnamed_addr constant [3 x i8] c"rb\00", align 1

; Function Attrs: nounwind uwtable
define ptr @Extra_FileReadFloat(ptr noundef %0, ptr noundef %1) #0 {
  %3 = alloca ptr, align 8
  %4 = alloca ptr, align 8
  %5 = alloca ptr, align 8
  %6 = alloca i32, align 4
  %7 = alloca i32, align 4
  store ptr %0, ptr %3, align 8, !tbaa !141
  store ptr %1, ptr %4, align 8, !tbaa !3
  call void @llvm.lifetime.start.p0(i64 8, ptr %5) #12
  call void @llvm.lifetime.start.p0(i64 4, ptr %6) #12
  call void @llvm.lifetime.start.p0(i64 4, ptr %7) #12
  %8 = load ptr, ptr %3, align 8, !tbaa !141
  %9 = call i32 @fseek(ptr noundef %8, i64 noundef 0, i32 noundef 2)
  %10 = load ptr, ptr %3, align 8, !tbaa !141
  %11 = call i64 @ftell(ptr noundef %10)
  %12 = trunc i64 %11 to i32
  %13 = load ptr, ptr %4, align 8, !tbaa !3
  store i32 %12, ptr %13, align 4, !tbaa !8
  store i32 %12, ptr %7, align 4, !tbaa !8
  %14 = load ptr, ptr %3, align 8, !tbaa !141
  call void @rewind(ptr noundef %14)
  %15 = load i32, ptr %7, align 4, !tbaa !8
  %16 = sdiv i32 %15, 4
  %17 = sext i32 %16 to i64
  %18 = call noalias ptr @calloc(i64 noundef %17, i64 noundef 4) #15
  store ptr %18, ptr %5, align 8, !tbaa !224
  %19 = load ptr, ptr %5, align 8, !tbaa !224
  %20 = load i32, ptr %7, align 4, !tbaa !8
  %21 = sext i32 %20 to i64
  %22 = load ptr, ptr %3, align 8, !tbaa !141
  %23 = call i64 @fread(ptr noundef %19, i64 noundef %21, i64 noundef 1, ptr noundef %22)
  %24 = trunc i64 %23 to i32
  store i32 %24, ptr %6, align 4, !tbaa !8
  %25 = load ptr, ptr %5, align 8, !tbaa !224
  call void @llvm.lifetime.end.p0(i64 4, ptr %7) #12
  call void @llvm.lifetime.end.p0(i64 4, ptr %6) #12
  call void @llvm.lifetime.end.p0(i64 8, ptr %5) #12
  ret ptr %25
}

; Function Attrs: nounwind uwtable
define ptr @Extra_FileReadFloatContents(ptr noundef %0, ptr noundef %1) #0 {
  %3 = alloca ptr, align 8
  %4 = alloca ptr, align 8
  %5 = alloca ptr, align 8
  %6 = alloca ptr, align 8
  store ptr %0, ptr %3, align 8, !tbaa !42
  store ptr %1, ptr %4, align 8, !tbaa !3
  call void @llvm.lifetime.start.p0(i64 8, ptr %5) #12
  call void @llvm.lifetime.start.p0(i64 8, ptr %6) #12
  %7 = load ptr, ptr %3, align 8, !tbaa !42
  %8 = call noalias ptr @fopen(ptr noundef %7, ptr noundef @.str.52)
  store ptr %8, ptr %5, align 8, !tbaa !141
  %9 = load ptr, ptr %5, align 8, !tbaa !141
  %10 = icmp ne ptr %9, null
  br i1 %10, label %11, label %15

11:                                               ; preds = %2
  %12 = load ptr, ptr %5, align 8, !tbaa !141
  %13 = load ptr, ptr %4, align 8, !tbaa !3
  %14 = call ptr @Extra_FileReadFloat(ptr noundef %12, ptr noundef %13)
  br label %16

15:                                               ; preds = %2
  br label %16

16:                                               ; preds = %15, %11
  %17 = phi ptr [ %14, %11 ], [ null, %15 ]
  store ptr %17, ptr %6, align 8, !tbaa !224
  %18 = load ptr, ptr %5, align 8, !tbaa !141
  %19 = icmp ne ptr %18, null
  br i1 %19, label %20, label %23

20:                                               ; preds = %16
  %21 = load ptr, ptr %5, align 8, !tbaa !141
  %22 = call i32 @fclose(ptr noundef %21)
  br label %23

23:                                               ; preds = %20, %16
  %24 = load ptr, ptr %6, align 8, !tbaa !224
  call void @llvm.lifetime.end.p0(i64 8, ptr %6) #12
  call void @llvm.lifetime.end.p0(i64 8, ptr %5) #12
  ret ptr %24
}