; Function Attrs: nofree nounwind uwtable
define noalias noundef ptr @Extra_FileReadFloatContents(ptr noundef readonly captures(none) %0, ptr noundef writeonly captures(none) %1) local_unnamed_addr #8 {
  %3 = tail call noalias ptr @fopen(ptr noundef %0, ptr noundef nonnull @.str.52)
  %.not = icmp eq ptr %3, null
  br i1 %.not, label %.thread, label %4

4:                                                ; preds = %2
  %5 = tail call i32 @fseek(ptr noundef nonnull %3, i64 noundef 0, i32 noundef 2)
  %6 = tail call i64 @ftell(ptr noundef nonnull %3)
  %7 = trunc i64 %6 to i32
  store i32 %7, ptr %1, align 4, !tbaa !3
  tail call void @rewind(ptr noundef nonnull %3)
  %8 = sdiv i32 %7, 4
  %9 = sext i32 %8 to i64
  %10 = tail call noalias ptr @calloc(i64 noundef %9, i64 noundef 4) #25
  %sext.i = shl i64 %6, 32
  %11 = ashr exact i64 %sext.i, 32
  %12 = tail call i64 @fread(ptr noundef %10, i64 noundef %11, i64 noundef 1, ptr noundef nonnull %3)
  %13 = tail call i32 @fclose(ptr noundef nonnull %3)
  br label %.thread

.thread:                                          ; preds = %2, %4
  %14 = phi ptr [ %10, %4 ], [ null, %2 ]
  ret ptr %14
}